; Function Attrs: nounwind uwtable
define zeroext i8 @l___private_Lean_Compiler_IR_RC_0__Lean_IR_ExplicitRC_consumeExpr(ptr noundef %0, ptr noundef %1) local_unnamed_addr #0 {
  %3 = ptrtoint ptr %1 to i64
  %4 = and i64 %3, 1
  %.not.i16 = icmp eq i64 %4, 0
  br i1 %.not.i16, label %8, label %5

5:                                                ; preds = %2
  %6 = lshr i64 %3, 1
  %7 = trunc i64 %6 to i32
  br label %lean_obj_tag.exit

8:                                                ; preds = %2
  %9 = getelementptr i8, ptr %1, i64 4
  %.val.i = load i32, ptr %9, align 4
  %10 = lshr i32 %.val.i, 24
  br label %lean_obj_tag.exit

lean_obj_tag.exit:                                ; preds = %5, %8
  %.0.i = phi i32 [ %7, %5 ], [ %10, %8 ]
  %11 = icmp eq i32 %.0.i, 3
  br i1 %11, label %12, label %lean_dec.exit

12:                                               ; preds = %lean_obj_tag.exit
  %13 = getelementptr inbounds nuw i8, ptr %1, i64 16
  %14 = load ptr, ptr %13, align 8, !tbaa !4
  %15 = tail call ptr @l_Lean_RBNode_find___at_Lean_IR_ExplicitRC_getVarInfo___spec__1(ptr noundef %0, ptr noundef %14)
  %16 = ptrtoint ptr %15 to i64
  %17 = and i64 %16, 1
  %.not.i17 = icmp eq i64 %17, 0
  br i1 %.not.i17, label %21, label %18

18:                                               ; preds = %12
  %19 = lshr i64 %16, 1
  %20 = trunc i64 %19 to i32
  br label %lean_obj_tag.exit20

21:                                               ; preds = %12
  %22 = getelementptr i8, ptr %15, i64 4
  %.val.i19 = load i32, ptr %22, align 4
  %23 = lshr i32 %.val.i19, 24
  br label %lean_obj_tag.exit20

lean_obj_tag.exit20:                              ; preds = %18, %21
  %.0.i18 = phi i32 [ %20, %18 ], [ %23, %21 ]
  %24 = icmp eq i32 %.0.i18, 0
  br i1 %24, label %lean_dec.exit, label %25

25:                                               ; preds = %lean_obj_tag.exit20
  %26 = getelementptr inbounds nuw i8, ptr %15, i64 8
  %27 = load ptr, ptr %26, align 8, !tbaa !4
  %28 = ptrtoint ptr %27 to i64
  %29 = and i64 %28, 1
  %.not = icmp eq i64 %29, 0
  br i1 %.not, label %30, label %lean_inc.exit

30:                                               ; preds = %25
  %.val.i21 = load i32, ptr %27, align 4, !tbaa !8
  %31 = icmp sgt i32 %.val.i21, 0
  br i1 %31, label %32, label %34, !prof !11

32:                                               ; preds = %30
  %33 = add nuw i32 %.val.i21, 1
  store i32 %33, ptr %27, align 4, !tbaa !8
  br label %lean_inc.exit

34:                                               ; preds = %30
  %.not.i22 = icmp eq i32 %.val.i21, 0
  br i1 %.not.i22, label %lean_inc.exit, label %35

35:                                               ; preds = %34
  tail call void @lean_inc_ref_cold(ptr noundef nonnull %27) #6
  br label %lean_inc.exit

lean_inc.exit:                                    ; preds = %35, %34, %32, %25
  br i1 %.not.i17, label %36, label %lean_dec.exit13

36:                                               ; preds = %lean_inc.exit
  %37 = load i32, ptr %15, align 4, !tbaa !8
  %38 = icmp sgt i32 %37, 1
  br i1 %38, label %39, label %41, !prof !11

39:                                               ; preds = %36
  %40 = add nsw i32 %37, -1
  store i32 %40, ptr %15, align 4, !tbaa !8
  br label %lean_dec.exit13

41:                                               ; preds = %36
  %.not.i = icmp eq i32 %37, 0
  br i1 %.not.i, label %lean_dec.exit13, label %42

42:                                               ; preds = %41
  tail call void @lean_dec_ref_cold(ptr noundef nonnull %15) #6
  br label %lean_dec.exit13

lean_dec.exit13:                                  ; preds = %42, %41, %39, %lean_inc.exit
  %43 = getelementptr inbounds nuw i8, ptr %27, i64 10
  %44 = load i8, ptr %43, align 1, !tbaa !15
  br i1 %.not, label %45, label %lean_dec.exit

45:                                               ; preds = %lean_dec.exit13
  %46 = load i32, ptr %27, align 4, !tbaa !8
  %47 = icmp sgt i32 %46, 1
  br i1 %47, label %48, label %50, !prof !11

48:                                               ; preds = %45
  %49 = add nsw i32 %46, -1
  store i32 %49, ptr %27, align 4, !tbaa !8
  br label %lean_dec.exit

50:                                               ; preds = %45
  %.not.i14 = icmp eq i32 %46, 0
  br i1 %.not.i14, label %lean_dec.exit, label %51

51:                                               ; preds = %50
  tail call void @lean_dec_ref_cold(ptr noundef nonnull %27) #6
  br label %lean_dec.exit

lean_dec.exit:                                    ; preds = %lean_dec.exit13, %48, %50, %51, %lean_obj_tag.exit, %lean_obj_tag.exit20
  %.1 = phi i8 [ 1, %lean_obj_tag.exit20 ], [ 1, %lean_obj_tag.exit ], [ %44, %51 ], [ %44, %50 ], [ %44, %48 ], [ %44, %lean_dec.exit13 ]
  ret i8 %.1
}